target datalayout = "e-m:e-p270:32:32-p271:32:32-p272:64:64-i64:64-i128:128-f80:128-n8:16:32:64-S128"
target triple = "x86_64-pc-linux-gnu"

%struct.AVFilterContext = type { ptr, ptr, ptr, ptr, ptr, i32, ptr, ptr, i32, ptr, ptr, i32, i32, ptr, ptr, ptr, ptr, i32, ptr, i32, i32 }
%struct.AVFilterFormatsConfig = type { ptr, ptr, ptr, ptr, ptr }
%struct.AVFilterLink = type { ptr, ptr, ptr, ptr, i32, i32, i32, i32, %struct.AVRational, i32, i32, i32, %struct.AVChannelLayout, %struct.AVRational, ptr, i32, %struct.AVFilterFormatsConfig, %struct.AVFilterFormatsConfig }
%struct.AVChannelLayout = type { i32, i32, %union.anon.1, ptr }
%union.anon.1 = type { i64 }
%struct.AVRational = type { i32, i32 }

@.str.16 = private unnamed_addr constant [26 x i8] c"Invalid odd size (%dx%d)\0A\00", align 1

; Function Attrs: nounwind uwtable
define internal i32 @config_props(ptr noundef %0) #1 {
  %2 = alloca i32, align 4
  %3 = alloca ptr, align 8
  %4 = alloca ptr, align 8
  %5 = alloca ptr, align 8
  %6 = alloca i32, align 4
  store ptr %0, ptr %3, align 8, !tbaa !45
  call void @llvm.lifetime.start.p0(i64 8, ptr %4) #9
  %7 = load ptr, ptr %3, align 8, !tbaa !45
  %8 = getelementptr inbounds nuw %struct.AVFilterLink, ptr %7, i32 0, i32 2
  %9 = load ptr, ptr %8, align 8, !tbaa !49
  store ptr %9, ptr %4, align 8, !tbaa !4
  call void @llvm.lifetime.start.p0(i64 8, ptr %5) #9
  %10 = load ptr, ptr %3, align 8, !tbaa !45
  %11 = getelementptr inbounds nuw %struct.AVFilterLink, ptr %10, i32 0, i32 0
  %12 = load ptr, ptr %11, align 8, !tbaa !167
  %13 = getelementptr inbounds nuw %struct.AVFilterContext, ptr %12, i32 0, i32 4
  %14 = load ptr, ptr %13, align 8, !tbaa !168
  %15 = getelementptr inbounds ptr, ptr %14, i64 0
  %16 = load ptr, ptr %15, align 8, !tbaa !45
  store ptr %16, ptr %5, align 8, !tbaa !45
  %17 = load ptr, ptr %5, align 8, !tbaa !45
  %18 = getelementptr inbounds nuw %struct.AVFilterLink, ptr %17, i32 0, i32 6
  %19 = load i32, ptr %18, align 8, !tbaa !57
  %20 = srem i32 %19, 2
  %21 = icmp ne i32 %20, 0
  br i1 %21, label %28, label %22

22:                                               ; preds = %1
  %23 = load ptr, ptr %5, align 8, !tbaa !45
  %24 = getelementptr inbounds nuw %struct.AVFilterLink, ptr %23, i32 0, i32 7
  %25 = load i32, ptr %24, align 4, !tbaa !58
  %26 = srem i32 %25, 2
  %27 = icmp ne i32 %26, 0
  br i1 %27, label %28, label %36

28:                                               ; preds = %22, %1
  %29 = load ptr, ptr %4, align 8, !tbaa !4
  %30 = load ptr, ptr %5, align 8, !tbaa !45
  %31 = getelementptr inbounds nuw %struct.AVFilterLink, ptr %30, i32 0, i32 6
  %32 = load i32, ptr %31, align 8, !tbaa !57
  %33 = load ptr, ptr %5, align 8, !tbaa !45
  %34 = getelementptr inbounds nuw %struct.AVFilterLink, ptr %33, i32 0, i32 7
  %35 = load i32, ptr %34, align 4, !tbaa !58
  call void (ptr, i32, ptr, ...) @av_log(ptr noundef %29, i32 noundef 16, ptr noundef @.str.16, i32 noundef %32, i32 noundef %35)
  store i32 -1163346256, ptr %2, align 4
  store i32 1, ptr %6, align 4
  br label %55

36:                                               ; preds = %22
  %37 = load ptr, ptr %5, align 8, !tbaa !45
  %38 = getelementptr inbounds nuw %struct.AVFilterLink, ptr %37, i32 0, i32 6
  %39 = load i32, ptr %38, align 8, !tbaa !57
  %40 = load ptr, ptr %3, align 8, !tbaa !45
  %41 = getelementptr inbounds nuw %struct.AVFilterLink, ptr %40, i32 0, i32 6
  store i32 %39, ptr %41, align 8, !tbaa !57
  %42 = load ptr, ptr %5, align 8, !tbaa !45
  %43 = getelementptr inbounds nuw %struct.AVFilterLink, ptr %42, i32 0, i32 7
  %44 = load i32, ptr %43, align 4, !tbaa !58
  %45 = load ptr, ptr %3, align 8, !tbaa !45
  %46 = getelementptr inbounds nuw %struct.AVFilterLink, ptr %45, i32 0, i32 7
  store i32 %44, ptr %46, align 4, !tbaa !58
  %47 = load ptr, ptr %3, align 8, !tbaa !45
  %48 = getelementptr inbounds nuw %struct.AVFilterLink, ptr %47, i32 0, i32 8
  %49 = load ptr, ptr %5, align 8, !tbaa !45
  %50 = getelementptr inbounds nuw %struct.AVFilterLink, ptr %49, i32 0, i32 8
  call void @llvm.memcpy.p0.p0.i64(ptr align 8 %48, ptr align 8 %50, i64 8, i1 false), !tbaa.struct !169
  %51 = load ptr, ptr %3, align 8, !tbaa !45
  %52 = getelementptr inbounds nuw %struct.AVFilterLink, ptr %51, i32 0, i32 13
  %53 = load ptr, ptr %5, align 8, !tbaa !45
  %54 = getelementptr inbounds nuw %struct.AVFilterLink, ptr %53, i32 0, i32 13
  call void @llvm.memcpy.p0.p0.i64(ptr align 8 %52, ptr align 8 %54, i64 8, i1 false), !tbaa.struct !169
  store i32 0, ptr %2, align 4
  store i32 1, ptr %6, align 4
  br label %55

55:                                               ; preds = %36, %28
  call void @llvm.lifetime.end.p0(i64 8, ptr %5) #9
  call void @llvm.lifetime.end.p0(i64 8, ptr %4) #9
  %56 = load i32, ptr %2, align 4
  ret i32 %56
}