; Function Attrs: nounwind uwtable
define internal range(i32 -1163346256, 1) i32 @config_props(ptr noundef captures(none) %0) #1 {
  %2 = load ptr, ptr %0, align 8, !tbaa !146
  %3 = getelementptr inbounds nuw i8, ptr %2, i64 32
  %4 = load ptr, ptr %3, align 8, !tbaa !147
  %5 = load ptr, ptr %4, align 8, !tbaa !50
  %6 = getelementptr inbounds nuw i8, ptr %5, i64 40
  %7 = load i32, ptr %6, align 8, !tbaa !52
  %8 = and i32 %7, 1
  %.not = icmp eq i32 %8, 0
  %9 = getelementptr inbounds nuw i8, ptr %5, i64 44
  %10 = load i32, ptr %9, align 4, !tbaa !53
  %11 = and i32 %10, 1
  %.not15 = icmp eq i32 %11, 0
  %or.cond = select i1 %.not, i1 %.not15, i1 false
  br i1 %or.cond, label %14, label %._crit_edge

._crit_edge:                                      ; preds = %1
  %12 = getelementptr inbounds nuw i8, ptr %0, i64 16
  %13 = load ptr, ptr %12, align 8, !tbaa !41
  tail call void (ptr, i32, ptr, ...) @av_log(ptr noundef %13, i32 noundef 16, ptr noundef nonnull @.str.16, i32 noundef %7, i32 noundef %10) #9
  br label %23

14:                                               ; preds = %1
  %15 = getelementptr inbounds nuw i8, ptr %0, i64 40
  store i32 %7, ptr %15, align 8, !tbaa !52
  %16 = getelementptr inbounds nuw i8, ptr %0, i64 44
  store i32 %10, ptr %16, align 4, !tbaa !53
  %17 = getelementptr inbounds nuw i8, ptr %0, i64 48
  %18 = getelementptr inbounds nuw i8, ptr %5, i64 48
  %19 = load i64, ptr %18, align 8
  store i64 %19, ptr %17, align 8
  %20 = getelementptr inbounds nuw i8, ptr %0, i64 96
  %21 = getelementptr inbounds nuw i8, ptr %5, i64 96
  %22 = load i64, ptr %21, align 8
  store i64 %22, ptr %20, align 8
  br label %23

23:                                               ; preds = %14, %._crit_edge
  %.0 = phi i32 [ -1163346256, %._crit_edge ], [ 0, %14 ]
  ret i32 %.0
}